target datalayout = "e-m:e-p270:32:32-p271:32:32-p272:64:64-i64:64-i128:128-f80:128-n8:16:32:64-S128"
target triple = "x86_64-pc-linux-gnu"

@rb_eArgError = external global i64, align 8
@.str.138 = private unnamed_addr constant [59 x i8] c"Type extends beyond end of buffer! (offset=%zd > size=%zd)\00", align 1

; Function Attrs: inlinehint nounwind sspstrong willreturn memory(none) uwtable
define internal i64 @rbimpl_fix2long_by_idiv(i64 noundef %0) #11 {
  %2 = alloca i64, align 8
  %3 = alloca i64, align 8
  %4 = alloca i64, align 8
  %5 = alloca i64, align 8
  store i64 %0, ptr %2, align 8, !tbaa !20
  call void @llvm.lifetime.start.p0(i64 8, ptr %3) #22
  %6 = load i64, ptr %2, align 8, !tbaa !20
  %7 = sub i64 %6, 1
  store i64 %7, ptr %3, align 8, !tbaa !20
  call void @llvm.lifetime.start.p0(i64 8, ptr %4) #22
  %8 = load i64, ptr %3, align 8, !tbaa !20
  %9 = sdiv i64 %8, 2
  store i64 %9, ptr %4, align 8, !tbaa !20
  call void @llvm.lifetime.start.p0(i64 8, ptr %5) #22
  %10 = load i64, ptr %4, align 8, !tbaa !20
  store i64 %10, ptr %5, align 8, !tbaa !20
  %11 = load i64, ptr %5, align 8, !tbaa !20
  call void @llvm.lifetime.end.p0(i64 8, ptr %5) #22
  call void @llvm.lifetime.end.p0(i64 8, ptr %4) #22
  call void @llvm.lifetime.end.p0(i64 8, ptr %3) #22
  ret i64 %11
}

; Function Attrs: inlinehint nounwind sspstrong willreturn memory(none) uwtable
define internal i64 @rbimpl_fix2long_by_shift(i64 noundef %0) #11 {
  %2 = alloca i64, align 8
  %3 = alloca i64, align 8
  %4 = alloca i64, align 8
  %5 = alloca i64, align 8
  store i64 %0, ptr %2, align 8, !tbaa !20
  call void @llvm.lifetime.start.p0(i64 8, ptr %3) #22
  %6 = load i64, ptr %2, align 8, !tbaa !20
  store i64 %6, ptr %3, align 8, !tbaa !20
  call void @llvm.lifetime.start.p0(i64 8, ptr %4) #22
  %7 = load i64, ptr %3, align 8, !tbaa !20
  %8 = ashr i64 %7, 1
  store i64 %8, ptr %4, align 8, !tbaa !20
  call void @llvm.lifetime.start.p0(i64 8, ptr %5) #22
  %9 = load i64, ptr %4, align 8, !tbaa !20
  store i64 %9, ptr %5, align 8, !tbaa !20
  %10 = load i64, ptr %5, align 8, !tbaa !20
  call void @llvm.lifetime.end.p0(i64 8, ptr %5) #22
  call void @llvm.lifetime.end.p0(i64 8, ptr %4) #22
  call void @llvm.lifetime.end.p0(i64 8, ptr %3) #22
  ret i64 %10
}

; Function Attrs: inlinehint nounwind sspstrong willreturn memory(none) uwtable
define internal zeroext i1 @rbimpl_right_shift_is_arithmetic_p() #11 {
  ret i1 true
}

; Function Attrs: alwaysinline nounwind
define internal ptr @memcpy.inline(ptr noalias nonnull %0, ptr noalias nonnull %1, i64 %2) #10 {
  %4 = alloca ptr, align 8
  %5 = alloca ptr, align 8
  %6 = alloca i64, align 8
  store ptr %0, ptr %4, align 8, !tbaa !7
  store ptr %1, ptr %5, align 8, !tbaa !7
  store i64 %2, ptr %6, align 8, !tbaa !20
  %7 = load ptr, ptr %4, align 8, !tbaa !7
  %8 = load ptr, ptr %5, align 8, !tbaa !7
  %9 = load i64, ptr %6, align 8, !tbaa !20
  %10 = load ptr, ptr %4, align 8, !tbaa !7
  %11 = call i64 @llvm.objectsize.i64.p0(ptr %10, i1 false, i1 true, i1 false)
  %12 = call ptr @__memcpy_chk(ptr noundef %7, ptr noundef %8, i64 noundef %9, i64 noundef %11) #22
  ret ptr %12
}

; Function Attrs: inlinehint nounwind sspstrong willreturn memory(none) uwtable
define internal i64 @rb_fix2long(i64 noundef %0) #11 {
  %2 = alloca i64, align 8
  %3 = alloca i64, align 8
  store i64 %0, ptr %3, align 8, !tbaa !20
  %4 = call zeroext i1 @rbimpl_right_shift_is_arithmetic_p() #24
  br i1 %4, label %5, label %8

5:                                                ; preds = %1
  %6 = load i64, ptr %3, align 8, !tbaa !20
  %7 = call i64 @rbimpl_fix2long_by_shift(i64 noundef %6) #24
  store i64 %7, ptr %2, align 8
  br label %11

8:                                                ; preds = %1
  %9 = load i64, ptr %3, align 8, !tbaa !20
  %10 = call i64 @rbimpl_fix2long_by_idiv(i64 noundef %9) #24
  store i64 %10, ptr %2, align 8
  br label %11

11:                                               ; preds = %8, %5
  %12 = load i64, ptr %2, align 8
  ret i64 %12
}

; Function Attrs: inlinehint nounwind sspstrong willreturn memory(none) uwtable
define internal zeroext i1 @RB_FIXNUM_P(i64 noundef %0) #11 {
  %2 = alloca i64, align 8
  store i64 %0, ptr %2, align 8, !tbaa !20
  %3 = load i64, ptr %2, align 8, !tbaa !20
  %4 = and i64 %3, 1
  %5 = icmp ne i64 %4, 0
  ret i1 %5
}

; Function Attrs: inlinehint nounwind sspstrong memory(argmem: readwrite, inaccessiblemem: readwrite) uwtable
define internal nonnull ptr @ruby_nonempty_memcpy(ptr noundef nonnull %0, ptr noundef %1, i64 noundef %2) #20 {
  %4 = alloca ptr, align 8
  %5 = alloca ptr, align 8
  %6 = alloca ptr, align 8
  %7 = alloca i64, align 8
  store ptr %0, ptr %5, align 8, !tbaa !7
  store ptr %1, ptr %6, align 8, !tbaa !7
  store i64 %2, ptr %7, align 8, !tbaa !20
  %8 = load i64, ptr %7, align 8, !tbaa !20
  %9 = icmp ne i64 %8, 0
  br i1 %9, label %10, label %15

10:                                               ; preds = %3
  %11 = load ptr, ptr %5, align 8, !tbaa !7
  %12 = load ptr, ptr %6, align 8, !tbaa !7
  %13 = load i64, ptr %7, align 8, !tbaa !20
  %14 = call ptr @memcpy.inline(ptr noundef %11, ptr noundef %12, i64 noundef %13) #22
  store ptr %14, ptr %4, align 8
  br label %17

15:                                               ; preds = %3
  %16 = load ptr, ptr %5, align 8, !tbaa !7
  store ptr %16, ptr %4, align 8
  br label %17

17:                                               ; preds = %15, %10
  %18 = load ptr, ptr %4, align 8
  ret ptr %18
}

; Function Attrs: inlinehint nounwind sspstrong uwtable
define internal i64 @ruby_swap64(i64 noundef %0) #3 {
  %2 = alloca i64, align 8
  store i64 %0, ptr %2, align 8, !tbaa !20
  %3 = load i64, ptr %2, align 8, !tbaa !20
  %4 = call i64 @llvm.bswap.i64(i64 %3)
  ret i64 %4
}

; Function Attrs: inlinehint nounwind sspstrong uwtable
define internal i64 @rb_num2ull_inline(i64 noundef %0) #3 {
  %2 = alloca i64, align 8
  %3 = alloca i64, align 8
  store i64 %0, ptr %3, align 8, !tbaa !20
  %4 = load i64, ptr %3, align 8, !tbaa !20
  %5 = call zeroext i1 @RB_FIXNUM_P(i64 noundef %4) #24
  br i1 %5, label %6, label %9

6:                                                ; preds = %1
  %7 = load i64, ptr %3, align 8, !tbaa !20
  %8 = call i64 @rb_fix2long(i64 noundef %7) #24
  store i64 %8, ptr %2, align 8
  br label %12

9:                                                ; preds = %1
  %10 = load i64, ptr %3, align 8, !tbaa !20
  %11 = call i64 @rb_num2ull(i64 noundef %10)
  store i64 %11, ptr %2, align 8
  br label %12

12:                                               ; preds = %9, %6
  %13 = load i64, ptr %2, align 8
  ret i64 %13
}

; Function Attrs: nounwind sspstrong uwtable
define internal void @io_buffer_validate_type(i64 noundef %0, i64 noundef %1) #0 {
  %3 = alloca i64, align 8
  %4 = alloca i64, align 8
  store i64 %0, ptr %3, align 8, !tbaa !20
  store i64 %1, ptr %4, align 8, !tbaa !20
  %5 = load i64, ptr %4, align 8, !tbaa !20
  %6 = load i64, ptr %3, align 8, !tbaa !20
  %7 = icmp ugt i64 %5, %6
  br i1 %7, label %8, label %12

8:                                                ; preds = %2
  %9 = load i64, ptr @rb_eArgError, align 8, !tbaa !20
  %10 = load i64, ptr %4, align 8, !tbaa !20
  %11 = load i64, ptr %3, align 8, !tbaa !20
  call void (i64, ptr, ...) @rb_raise(i64 noundef %9, ptr noundef @.str.138, i64 noundef %10, i64 noundef %11) #26
  unreachable

12:                                               ; preds = %2
  ret void
}

; Function Attrs: nounwind sspstrong uwtable
define internal void @io_buffer_write_U64(ptr noundef %0, i64 noundef %1, ptr noundef %2, i64 noundef %3) #0 {
  %5 = alloca ptr, align 8
  %6 = alloca i64, align 8
  %7 = alloca ptr, align 8
  %8 = alloca i64, align 8
  %9 = alloca i64, align 8
  store ptr %0, ptr %5, align 8, !tbaa !7
  store i64 %1, ptr %6, align 8, !tbaa !20
  store ptr %2, ptr %7, align 8, !tbaa !33
  store i64 %3, ptr %8, align 8, !tbaa !20
  %10 = load i64, ptr %6, align 8, !tbaa !20
  %11 = load ptr, ptr %7, align 8, !tbaa !33
  %12 = load i64, ptr %11, align 8, !tbaa !20
  %13 = add i64 %12, 8
  call void @io_buffer_validate_type(i64 noundef %10, i64 noundef %13)
  call void @llvm.lifetime.start.p0(i64 8, ptr %9) #22
  %14 = load i64, ptr %8, align 8, !tbaa !20
  %15 = call i64 @rb_num2ull_inline(i64 noundef %14)
  store i64 %15, ptr %9, align 8, !tbaa !20
  %16 = load i64, ptr %9, align 8, !tbaa !20
  %17 = call i64 @ruby_swap64(i64 noundef %16)
  store i64 %17, ptr %9, align 8, !tbaa !20
  %18 = load ptr, ptr %5, align 8, !tbaa !7
  %19 = load ptr, ptr %7, align 8, !tbaa !33
  %20 = load i64, ptr %19, align 8, !tbaa !20
  %21 = getelementptr i8, ptr %18, i64 %20
  %22 = call nonnull ptr @ruby_nonempty_memcpy(ptr noundef %21, ptr noundef %9, i64 noundef 8) #29
  %23 = load ptr, ptr %7, align 8, !tbaa !33
  %24 = load i64, ptr %23, align 8, !tbaa !20
  %25 = add i64 %24, 8
  store i64 %25, ptr %23, align 8, !tbaa !20
  call void @llvm.lifetime.end.p0(i64 8, ptr %9) #22
  ret void
}