; Function Attrs: nounwind sspstrong uwtable
define internal fastcc void @io_buffer_write_U64(ptr noundef %0, i64 noundef %1, ptr noundef nonnull captures(none) %2, i64 noundef %3) unnamed_addr #0 {
  %5 = load i64, ptr %2, align 8, !tbaa !22
  %6 = add i64 %5, 8
  %7 = icmp ugt i64 %6, %1
  br i1 %7, label %8, label %io_buffer_validate_type.exit

8:                                                ; preds = %4
  %9 = load i64, ptr @rb_eArgError, align 8, !tbaa !22
  tail call void (i64, ptr, ...) @rb_raise(i64 noundef %9, ptr noundef nonnull @.str.138, i64 noundef %6, i64 noundef %1) #26
  unreachable

io_buffer_validate_type.exit:                     ; preds = %4
  %10 = and i64 %3, 1
  %.not.i = icmp eq i64 %10, 0
  br i1 %.not.i, label %13, label %11

11:                                               ; preds = %io_buffer_validate_type.exit
  %12 = ashr i64 %3, 1
  br label %rb_num2ull_inline.exit

13:                                               ; preds = %io_buffer_validate_type.exit
  %14 = tail call i64 @rb_num2ull(i64 noundef %3) #25
  %.pre = load i64, ptr %2, align 8, !tbaa !22
  br label %rb_num2ull_inline.exit

rb_num2ull_inline.exit:                           ; preds = %11, %13
  %15 = phi i64 [ %5, %11 ], [ %.pre, %13 ]
  %.0.i = phi i64 [ %12, %11 ], [ %14, %13 ]
  %16 = tail call noundef i64 @llvm.bswap.i64(i64 %.0.i)
  %17 = getelementptr i8, ptr %0, i64 %15
  store i64 %16, ptr %17, align 1
  %18 = load i64, ptr %2, align 8, !tbaa !22
  %19 = add i64 %18, 8
  store i64 %19, ptr %2, align 8, !tbaa !22
  ret void
}